target datalayout = "e-m:e-p270:32:32-p271:32:32-p272:64:64-i64:64-i128:128-f80:128-n8:16:32:64-S128"
target triple = "x86_64-pc-linux-gnu"

; Function Attrs: nounwind uwtable
define hidden zeroext i1 @lexbor_str_data_ncasecmp(ptr noundef %0, ptr noundef %1, i64 noundef %2) #0 {
  %4 = alloca i1, align 1
  %5 = alloca ptr, align 8
  %6 = alloca ptr, align 8
  %7 = alloca i64, align 8
  %8 = alloca i64, align 8
  store ptr %0, ptr %5, align 8
  store ptr %1, ptr %6, align 8
  store i64 %2, ptr %7, align 8
  store i64 0, ptr %8, align 8
  br label %9

9:                                                ; preds = %33, %3
  %10 = load i64, ptr %8, align 8
  %11 = load i64, ptr %7, align 8
  %12 = icmp ult i64 %10, %11
  br i1 %12, label %13, label %36

13:                                               ; preds = %9
  %14 = load ptr, ptr %5, align 8
  %15 = load i64, ptr %8, align 8
  %16 = getelementptr inbounds i8, ptr %14, i64 %15
  %17 = load i8, ptr %16, align 1
  %18 = zext i8 %17 to i64
  %19 = getelementptr inbounds [256 x i8], ptr @lexbor_str_res_map_lowercase, i64 0, i64 %18
  %20 = load i8, ptr %19, align 1
  %21 = zext i8 %20 to i32
  %22 = load ptr, ptr %6, align 8
  %23 = load i64, ptr %8, align 8
  %24 = getelementptr inbounds i8, ptr %22, i64 %23
  %25 = load i8, ptr %24, align 1
  %26 = zext i8 %25 to i64
  %27 = getelementptr inbounds [256 x i8], ptr @lexbor_str_res_map_lowercase, i64 0, i64 %26
  %28 = load i8, ptr %27, align 1
  %29 = zext i8 %28 to i32
  %30 = icmp ne i32 %21, %29
  br i1 %30, label %31, label %32

31:                                               ; preds = %13
  store i1 false, ptr %4, align 1
  br label %37

32:                                               ; preds = %13
  br label %33

33:                                               ; preds = %32
  %34 = load i64, ptr %8, align 8
  %35 = add i64 %34, 1
  store i64 %35, ptr %8, align 8
  br label %9

36:                                               ; preds = %9
  store i1 true, ptr %4, align 1
  br label %37

37:                                               ; preds = %36, %31
  %38 = load i1, ptr %4, align 1
  ret i1 %38
}

; Function Attrs: nounwind uwtable
define hidden zeroext i1 @lexbor_str_data_ncasecmp_contain(ptr noundef %0, i64 noundef %1, ptr noundef %2, i64 noundef %3) #0 {
  %5 = alloca i1, align 1
  %6 = alloca ptr, align 8
  %7 = alloca i64, align 8
  %8 = alloca ptr, align 8
  %9 = alloca i64, align 8
  %10 = alloca i64, align 8
  store ptr %0, ptr %6, align 8
  store i64 %1, ptr %7, align 8
  store ptr %2, ptr %8, align 8
  store i64 %3, ptr %9, align 8
  store i64 0, ptr %10, align 8
  br label %11

11:                                               ; preds = %26, %4
  %12 = load i64, ptr %9, align 8
  %13 = load i64, ptr %7, align 8
  %14 = load i64, ptr %10, align 8
  %15 = sub i64 %13, %14
  %16 = icmp ule i64 %12, %15
  br i1 %16, label %17, label %29

17:                                               ; preds = %11
  %18 = load ptr, ptr %6, align 8
  %19 = load i64, ptr %10, align 8
  %20 = getelementptr inbounds i8, ptr %18, i64 %19
  %21 = load ptr, ptr %8, align 8
  %22 = load i64, ptr %9, align 8
  %23 = call zeroext i1 @lexbor_str_data_ncasecmp(ptr noundef %20, ptr noundef %21, i64 noundef %22)
  br i1 %23, label %24, label %25

24:                                               ; preds = %17
  store i1 true, ptr %5, align 1
  br label %30

25:                                               ; preds = %17
  br label %26

26:                                               ; preds = %25
  %27 = load i64, ptr %10, align 8
  %28 = add i64 %27, 1
  store i64 %28, ptr %10, align 8
  br label %11

29:                                               ; preds = %11
  store i1 false, ptr %5, align 1
  br label %30

30:                                               ; preds = %29, %24
  %31 = load i1, ptr %5, align 1
  ret i1 %31
}