; Function Attrs: nofree norecurse nosync nounwind memory(argmem: read) uwtable
define hidden noundef zeroext i1 @lexbor_str_data_ncasecmp_contain(ptr nocapture noundef readonly %0, i64 noundef %1, ptr nocapture noundef readonly %2, i64 noundef %3) local_unnamed_addr #8 {
  %.not14.not = icmp ult i64 %1, %3
  br i1 %.not14.not, label %lexbor_str_data_ncasecmp.exit.thread, label %.lr.ph17

.lr.ph17:                                         ; preds = %4
  %5 = icmp eq i64 %3, 0
  br i1 %5, label %lexbor_str_data_ncasecmp.exit.thread, label %.lr.ph17.split

.lr.ph17.split:                                   ; preds = %.lr.ph17
  %6 = load i8, ptr %2, align 1
  %7 = zext i8 %6 to i64
  %8 = getelementptr inbounds [256 x i8], ptr @lexbor_str_res_map_lowercase, i64 0, i64 %7
  %9 = load i8, ptr %8, align 1
  br label %.lr.ph.i.preheader

lexbor_str_data_ncasecmp.exit.thread22:           ; preds = %.lr.ph.i.preheader, %lexbor_str_data_ncasecmp.exit
  %10 = add i64 %.015, 1
  %11 = sub i64 %1, %10
  %.not.not = icmp ult i64 %11, %3
  br i1 %.not.not, label %lexbor_str_data_ncasecmp.exit.thread, label %.lr.ph.i.preheader

.lr.ph.i.preheader:                               ; preds = %.lr.ph17.split, %lexbor_str_data_ncasecmp.exit.thread22
  %.015 = phi i64 [ 0, %.lr.ph17.split ], [ %10, %lexbor_str_data_ncasecmp.exit.thread22 ]
  %12 = getelementptr inbounds i8, ptr %0, i64 %.015
  %13 = load i8, ptr %12, align 1
  %14 = zext i8 %13 to i64
  %15 = getelementptr inbounds [256 x i8], ptr @lexbor_str_res_map_lowercase, i64 0, i64 %14
  %16 = load i8, ptr %15, align 1
  %.not.i11 = icmp eq i8 %16, %9
  br i1 %.not.i11, label %.lr.ph, label %lexbor_str_data_ncasecmp.exit.thread22

.lr.ph:                                           ; preds = %.lr.ph.i.preheader, %.lr.ph.i
  %.08.i12 = phi i64 [ %17, %.lr.ph.i ], [ 0, %.lr.ph.i.preheader ]
  %17 = add nuw i64 %.08.i12, 1
  %exitcond.i = icmp eq i64 %17, %3
  br i1 %exitcond.i, label %lexbor_str_data_ncasecmp.exit, label %.lr.ph.i

.lr.ph.i:                                         ; preds = %.lr.ph
  %18 = getelementptr inbounds i8, ptr %12, i64 %17
  %19 = load i8, ptr %18, align 1
  %20 = zext i8 %19 to i64
  %21 = getelementptr inbounds [256 x i8], ptr @lexbor_str_res_map_lowercase, i64 0, i64 %20
  %22 = load i8, ptr %21, align 1
  %23 = getelementptr inbounds i8, ptr %2, i64 %17
  %24 = load i8, ptr %23, align 1
  %25 = zext i8 %24 to i64
  %26 = getelementptr inbounds [256 x i8], ptr @lexbor_str_res_map_lowercase, i64 0, i64 %25
  %27 = load i8, ptr %26, align 1
  %.not.i = icmp eq i8 %22, %27
  br i1 %.not.i, label %.lr.ph, label %lexbor_str_data_ncasecmp.exit

lexbor_str_data_ncasecmp.exit:                    ; preds = %.lr.ph.i, %.lr.ph
  %.not = icmp ult i64 %17, %3
  br i1 %.not, label %lexbor_str_data_ncasecmp.exit.thread22, label %lexbor_str_data_ncasecmp.exit.thread

lexbor_str_data_ncasecmp.exit.thread:             ; preds = %lexbor_str_data_ncasecmp.exit, %lexbor_str_data_ncasecmp.exit.thread22, %.lr.ph17, %4
  %.not.lcssa = phi i1 [ false, %4 ], [ true, %.lr.ph17 ], [ true, %lexbor_str_data_ncasecmp.exit ], [ false, %lexbor_str_data_ncasecmp.exit.thread22 ]
  ret i1 %.not.lcssa
}